target datalayout = "e-m:e-p270:32:32-p271:32:32-p272:64:64-i64:64-i128:128-f80:128-n8:16:32:64-S128"
target triple = "x86_64-pc-linux-gnu"

%class.QModelIndex = type { i32, i32, i64, ptr }
%class.QObject = type { ptr, %class.QScopedPointer }
%class.QScopedPointer = type { ptr }
%class.QPaintDevice.base = type <{ ptr, i16 }>
%class.QList.9 = type { %struct.QArrayDataPointer.12 }
%struct.QArrayDataPointer.12 = type { ptr, ptr, i64 }
%class.PacketList = type { %class.QTreeView, ptr, ptr, ptr, ptr, %class.QMenu, %class.QMenu, %class.QMenu, i32, %class.QByteArray, ptr, i32, i8, i8, %class.QList, i8, %class.QModelIndex, %class.RelatedPacketDelegate, ptr, %class.QList.1, i8, i8, i8, i8, i8, %class.QModelIndex, %class.QList.5, %class.QList.9, i32, i8, ptr }
%class.QTreeView = type { %class.QAbstractItemView }
%class.QAbstractItemView = type { %class.QAbstractScrollArea }
%class.QAbstractScrollArea = type { %class.QFrame }
%class.QFrame = type { %class.QWidget }
%class.QWidget = type { %class.QObject, %class.QPaintDevice.base, ptr }
%class.QMenu = type { %class.QWidget }
%class.QByteArray = type { %struct.QArrayDataPointer }
%struct.QArrayDataPointer = type { ptr, ptr, i64 }
%class.QList = type { %struct.QArrayDataPointer.0 }
%struct.QArrayDataPointer.0 = type { ptr, ptr, i64 }
%class.RelatedPacketDelegate = type <{ %class.QStyledItemDelegate, %class.QHash, ptr, i32, [4 x i8] }>
%class.QStyledItemDelegate = type { %class.QAbstractItemDelegate }
%class.QAbstractItemDelegate = type { %class.QObject }
%class.QHash = type { ptr }
%class.QList.1 = type { %struct.QArrayDataPointer.4 }
%struct.QArrayDataPointer.4 = type { ptr, ptr, i64 }
%class.QList.5 = type { %struct.QArrayDataPointer.8 }
%struct.QArrayDataPointer.8 = type { ptr, ptr, i64 }

; Function Attrs: mustprogress uwtable
define void @_ZN10PacketList23captureFileReadFinishedEv(ptr noundef nonnull align 8 dereferenceable(464) %0) #0 align 2 {
  %2 = alloca ptr, align 8
  store ptr %0, ptr %2, align 8
  %3 = load ptr, ptr %2, align 8
  %4 = getelementptr inbounds %class.PacketList, ptr %3, i32 0, i32 1
  %5 = load ptr, ptr %4, align 8
  call void @_ZN15PacketListModel16flushVisibleRowsEv(ptr noundef nonnull align 8 dereferenceable(164) %5)
  %6 = getelementptr inbounds %class.PacketList, ptr %3, i32 0, i32 1
  %7 = load ptr, ptr %6, align 8
  call void @_ZN15PacketListModel11dissectIdleEb(ptr noundef nonnull align 8 dereferenceable(164) %7, i1 noundef zeroext true)
  %8 = getelementptr inbounds %class.PacketList, ptr %3, i32 0, i32 1
  %9 = load ptr, ptr %8, align 8
  call void @_ZN15PacketListModel26invalidateAllColumnStringsEv(ptr noundef nonnull align 8 dereferenceable(164) %9)
  %10 = call noundef zeroext i1 @_ZNK9QTreeView16isSortingEnabledEv(ptr noundef nonnull align 8 dereferenceable(40) %3)
  br i1 %10, label %11, label %16

11:                                               ; preds = %1
  %12 = call noundef ptr @_ZNK9QTreeView6headerEv(ptr noundef nonnull align 8 dereferenceable(40) %3)
  %13 = call noundef i32 @_ZNK11QHeaderView20sortIndicatorSectionEv(ptr noundef nonnull align 8 dereferenceable(40) %12)
  %14 = call noundef ptr @_ZNK9QTreeView6headerEv(ptr noundef nonnull align 8 dereferenceable(40) %3)
  %15 = call noundef i32 @_ZNK11QHeaderView18sortIndicatorOrderEv(ptr noundef nonnull align 8 dereferenceable(40) %14)
  call void @_ZN9QTreeView12sortByColumnEiN2Qt9SortOrderE(ptr noundef nonnull align 8 dereferenceable(40) %3, i32 noundef %13, i32 noundef %15)
  br label %16

16:                                               ; preds = %11, %1
  ret void
}