; Function Attrs: mustprogress uwtable
define void @_ZN10PacketList23captureFileReadFinishedEv(ptr noundef nonnull align 8 dereferenceable(464) %0) local_unnamed_addr #0 align 2 {
  %2 = getelementptr inbounds i8, ptr %0, i64 40
  %3 = load ptr, ptr %2, align 8
  tail call void @_ZN15PacketListModel16flushVisibleRowsEv(ptr noundef nonnull align 8 dereferenceable(164) %3)
  %4 = load ptr, ptr %2, align 8
  tail call void @_ZN15PacketListModel11dissectIdleEb(ptr noundef nonnull align 8 dereferenceable(164) %4, i1 noundef zeroext true)
  %5 = load ptr, ptr %2, align 8
  tail call void @_ZN15PacketListModel26invalidateAllColumnStringsEv(ptr noundef nonnull align 8 dereferenceable(164) %5)
  %6 = tail call noundef zeroext i1 @_ZNK9QTreeView16isSortingEnabledEv(ptr noundef nonnull align 8 dereferenceable(40) %0)
  br i1 %6, label %7, label %12

7:                                                ; preds = %1
  %8 = tail call noundef ptr @_ZNK9QTreeView6headerEv(ptr noundef nonnull align 8 dereferenceable(40) %0)
  %9 = tail call noundef i32 @_ZNK11QHeaderView20sortIndicatorSectionEv(ptr noundef nonnull align 8 dereferenceable(40) %8)
  %10 = tail call noundef ptr @_ZNK9QTreeView6headerEv(ptr noundef nonnull align 8 dereferenceable(40) %0)
  %11 = tail call noundef i32 @_ZNK11QHeaderView18sortIndicatorOrderEv(ptr noundef nonnull align 8 dereferenceable(40) %10)
  tail call void @_ZN9QTreeView12sortByColumnEiN2Qt9SortOrderE(ptr noundef nonnull align 8 dereferenceable(40) %0, i32 noundef %9, i32 noundef %11)
  br label %12

12:                                               ; preds = %7, %1
  ret void
}